target datalayout = "e-m:e-p270:32:32-p271:32:32-p272:64:64-i64:64-i128:128-f80:128-n8:16:32:64-S128"
target triple = "x86_64-pc-linux-gnu"

; Function Attrs: alwaysinline nounwind willreturn memory(none) uwtable
define internal i32 @av_bswap32(i32 noundef %0) #3 {
  %2 = alloca i32, align 4
  store i32 %0, ptr %2, align 4, !tbaa !11
  %3 = load i32, ptr %2, align 4, !tbaa !11
  %4 = shl i32 %3, 8
  %5 = and i32 %4, 65280
  %6 = load i32, ptr %2, align 4, !tbaa !11
  %7 = lshr i32 %6, 8
  %8 = and i32 %7, 255
  %9 = or i32 %5, %8
  %10 = shl i32 %9, 16
  %11 = load i32, ptr %2, align 4, !tbaa !11
  %12 = lshr i32 %11, 16
  %13 = shl i32 %12, 8
  %14 = and i32 %13, 65280
  %15 = load i32, ptr %2, align 4, !tbaa !11
  %16 = lshr i32 %15, 16
  %17 = lshr i32 %16, 8
  %18 = and i32 %17, 255
  %19 = or i32 %14, %18
  %20 = or i32 %10, %19
  ret i32 %20
}

; Function Attrs: nounwind uwtable
define i32 @ff_vvc_annexb2mp4(ptr noundef %0, ptr noundef %1, i32 noundef %2, i32 noundef %3, ptr noundef %4) #0 {
  %6 = alloca ptr, align 8
  %7 = alloca ptr, align 8
  %8 = alloca i32, align 4
  %9 = alloca i32, align 4
  %10 = alloca ptr, align 8
  %11 = alloca i32, align 4
  %12 = alloca i32, align 4
  %13 = alloca ptr, align 8
  %14 = alloca ptr, align 8
  %15 = alloca ptr, align 8
  %16 = alloca i32, align 4
  %17 = alloca i8, align 1
  store ptr %0, ptr %6, align 8, !tbaa !4
  store ptr %1, ptr %7, align 8, !tbaa !9
  store i32 %2, ptr %8, align 4, !tbaa !11
  store i32 %3, ptr %9, align 4, !tbaa !11
  store ptr %4, ptr %10, align 8, !tbaa !13
  call void @llvm.lifetime.start.p0(i64 4, ptr %11) #9
  store i32 0, ptr %11, align 4, !tbaa !11
  call void @llvm.lifetime.start.p0(i64 4, ptr %12) #9
  store i32 0, ptr %12, align 4, !tbaa !11
  call void @llvm.lifetime.start.p0(i64 8, ptr %13) #9
  call void @llvm.lifetime.start.p0(i64 8, ptr %14) #9
  call void @llvm.lifetime.start.p0(i64 8, ptr %15) #9
  store ptr null, ptr %15, align 8, !tbaa !9
  %18 = load i32, ptr %9, align 4, !tbaa !11
  %19 = icmp ne i32 %18, 0
  br i1 %19, label %25, label %20

20:                                               ; preds = %5
  %21 = load ptr, ptr %6, align 8, !tbaa !4
  %22 = load ptr, ptr %7, align 8, !tbaa !9
  %23 = load i32, ptr %8, align 4, !tbaa !11
  %24 = call i32 @ff_nal_parse_units(ptr noundef %21, ptr noundef %22, i32 noundef %23)
  store i32 %24, ptr %12, align 4, !tbaa !11
  br label %100

25:                                               ; preds = %5
  %26 = load ptr, ptr %7, align 8, !tbaa !9
  %27 = call i32 @ff_nal_parse_units_buf(ptr noundef %26, ptr noundef %15, ptr noundef %8)
  store i32 %27, ptr %12, align 4, !tbaa !11
  %28 = load i32, ptr %12, align 4, !tbaa !11
  %29 = icmp slt i32 %28, 0
  br i1 %29, label %30, label %31

30:                                               ; preds = %25
  br label %100

31:                                               ; preds = %25
  store i32 0, ptr %12, align 4, !tbaa !11
  %32 = load ptr, ptr %15, align 8, !tbaa !9
  store ptr %32, ptr %13, align 8, !tbaa !9
  %33 = load ptr, ptr %15, align 8, !tbaa !9
  %34 = load i32, ptr %8, align 4, !tbaa !11
  %35 = sext i32 %34 to i64
  %36 = getelementptr inbounds i8, ptr %33, i64 %35
  store ptr %36, ptr %14, align 8, !tbaa !9
  br label %37

37:                                               ; preds = %94, %31
  %38 = load ptr, ptr %14, align 8, !tbaa !9
  %39 = load ptr, ptr %13, align 8, !tbaa !9
  %40 = ptrtoint ptr %38 to i64
  %41 = ptrtoint ptr %39 to i64
  %42 = sub i64 %40, %41
  %43 = icmp sgt i64 %42, 4
  br i1 %43, label %44, label %99

44:                                               ; preds = %37
  call void @llvm.lifetime.start.p0(i64 4, ptr %16) #9
  %45 = load ptr, ptr %13, align 8, !tbaa !9
  %46 = load i32, ptr %45, align 1, !tbaa !15
  %47 = call i32 @av_bswap32(i32 noundef %46) #10
  %48 = zext i32 %47 to i64
  %49 = load ptr, ptr %14, align 8, !tbaa !9
  %50 = load ptr, ptr %13, align 8, !tbaa !9
  %51 = ptrtoint ptr %49 to i64
  %52 = ptrtoint ptr %50 to i64
  %53 = sub i64 %51, %52
  %54 = sub nsw i64 %53, 4
  %55 = icmp sgt i64 %48, %54
  br i1 %55, label %56, label %63

56:                                               ; preds = %44
  %57 = load ptr, ptr %14, align 8, !tbaa !9
  %58 = load ptr, ptr %13, align 8, !tbaa !9
  %59 = ptrtoint ptr %57 to i64
  %60 = ptrtoint ptr %58 to i64
  %61 = sub i64 %59, %60
  %62 = sub nsw i64 %61, 4
  br label %68

63:                                               ; preds = %44
  %64 = load ptr, ptr %13, align 8, !tbaa !9
  %65 = load i32, ptr %64, align 1, !tbaa !15
  %66 = call i32 @av_bswap32(i32 noundef %65) #10
  %67 = zext i32 %66 to i64
  br label %68

68:                                               ; preds = %63, %56
  %69 = phi i64 [ %62, %56 ], [ %67, %63 ]
  %70 = trunc i64 %69 to i32
  store i32 %70, ptr %16, align 4, !tbaa !11
  call void @llvm.lifetime.start.p0(i64 1, ptr %17) #9
  %71 = load ptr, ptr %13, align 8, !tbaa !9
  %72 = getelementptr inbounds i8, ptr %71, i64 5
  %73 = load i8, ptr %72, align 1, !tbaa !15
  %74 = zext i8 %73 to i32
  %75 = ashr i32 %74, 3
  %76 = trunc i32 %75 to i8
  store i8 %76, ptr %17, align 1, !tbaa !15
  %77 = load ptr, ptr %13, align 8, !tbaa !9
  %78 = getelementptr inbounds i8, ptr %77, i64 4
  store ptr %78, ptr %13, align 8, !tbaa !9
  %79 = load i8, ptr %17, align 1, !tbaa !15
  %80 = zext i8 %79 to i32
  switch i32 %80, label %84 [
    i32 14, label %81
    i32 15, label %81
    i32 16, label %81
  ]

81:                                               ; preds = %68, %68, %68
  %82 = load i32, ptr %11, align 4, !tbaa !11
  %83 = add nsw i32 %82, 1
  store i32 %83, ptr %11, align 4, !tbaa !11
  br label %94

84:                                               ; preds = %68
  %85 = load i32, ptr %16, align 4, !tbaa !11
  %86 = add i32 4, %85
  %87 = load i32, ptr %12, align 4, !tbaa !11
  %88 = add i32 %87, %86
  store i32 %88, ptr %12, align 4, !tbaa !11
  %89 = load ptr, ptr %6, align 8, !tbaa !4
  %90 = load i32, ptr %16, align 4, !tbaa !11
  call void @avio_wb32(ptr noundef %89, i32 noundef %90)
  %91 = load ptr, ptr %6, align 8, !tbaa !4
  %92 = load ptr, ptr %13, align 8, !tbaa !9
  %93 = load i32, ptr %16, align 4, !tbaa !11
  call void @avio_write(ptr noundef %91, ptr noundef %92, i32 noundef %93)
  br label %94

94:                                               ; preds = %84, %81
  %95 = load i32, ptr %16, align 4, !tbaa !11
  %96 = load ptr, ptr %13, align 8, !tbaa !9
  %97 = zext i32 %95 to i64
  %98 = getelementptr inbounds nuw i8, ptr %96, i64 %97
  store ptr %98, ptr %13, align 8, !tbaa !9
  call void @llvm.lifetime.end.p0(i64 1, ptr %17) #9
  call void @llvm.lifetime.end.p0(i64 4, ptr %16) #9
  br label %37, !llvm.loop !16

99:                                               ; preds = %37
  br label %100

100:                                              ; preds = %99, %30, %20
  %101 = load ptr, ptr %15, align 8, !tbaa !9
  call void @av_free(ptr noundef %101)
  %102 = load ptr, ptr %10, align 8, !tbaa !13
  %103 = icmp ne ptr %102, null
  br i1 %103, label %104, label %107

104:                                              ; preds = %100
  %105 = load i32, ptr %11, align 4, !tbaa !11
  %106 = load ptr, ptr %10, align 8, !tbaa !13
  store i32 %105, ptr %106, align 4, !tbaa !11
  br label %107

107:                                              ; preds = %104, %100
  %108 = load i32, ptr %12, align 4, !tbaa !11
  call void @llvm.lifetime.end.p0(i64 8, ptr %15) #9
  call void @llvm.lifetime.end.p0(i64 8, ptr %14) #9
  call void @llvm.lifetime.end.p0(i64 8, ptr %13) #9
  call void @llvm.lifetime.end.p0(i64 4, ptr %12) #9
  call void @llvm.lifetime.end.p0(i64 4, ptr %11) #9
  ret i32 %108
}